target datalayout = "e-m:e-p270:32:32-p271:32:32-p272:64:64-i64:64-i128:128-f80:128-n8:16:32:64-S128"
target triple = "x86_64-pc-linux-gnu"

%struct.anon = type { i8, i32, i8, i64, ptr, ptr, i32 }
%struct.SDL_UDEV_Symbols = type { ptr, ptr, ptr, ptr, ptr, ptr, ptr, ptr, ptr, ptr, ptr, ptr, ptr, ptr, ptr, ptr, ptr, ptr, ptr, ptr, ptr, ptr, ptr, ptr, ptr, ptr, ptr }

@udev_ctx = internal global ptr null, align 8
@last_global_error_str = internal global ptr null, align 8
@SDL_hidapi_ignored_devices = internal global ptr null, align 8
@SDL_hidapi_refcount = internal global i32 0, align 4
@.str.19 = private unnamed_addr constant [38 x i8] c"SDL_HIDAPI_ENUMERATE_ONLY_CONTROLLERS\00", align 1
@.str.20 = private unnamed_addr constant [26 x i8] c"SDL_HIDAPI_IGNORE_DEVICES\00", align 1
@linux_enumeration_method = internal global i32 0, align 4
@SDL_HIDAPI_discovery = internal global %struct.anon zeroinitializer, align 8
@.str.31 = private unnamed_addr constant [3 x i8] c"%s\00", align 1
@usyms = internal global ptr null, align 8
@inotify_fd = internal global i32 -1, align 4

; Function Attrs: nounwind uwtable
define internal void @register_error_str(ptr noundef %0, ptr noundef %1) #0 {
  %3 = alloca ptr, align 8
  %4 = alloca ptr, align 8
  store ptr %0, ptr %3, align 8
  store ptr %1, ptr %4, align 8
  %5 = load ptr, ptr %3, align 8
  %6 = load ptr, ptr %5, align 8
  call void @free(ptr noundef %6) #10
  %7 = load ptr, ptr %4, align 8
  %8 = icmp ne ptr %7, null
  br i1 %8, label %9, label %12

9:                                                ; preds = %2
  %10 = load ptr, ptr %4, align 8
  %11 = call zeroext i1 (ptr, ...) @SDL_SetError_REAL(ptr noundef @.str.31, ptr noundef %10)
  br label %14

12:                                               ; preds = %2
  %13 = call zeroext i1 @SDL_ClearError_REAL()
  br label %14

14:                                               ; preds = %12, %9
  ret void
}

; Function Attrs: nounwind uwtable
define internal void @register_global_error(ptr noundef %0) #0 {
  %2 = alloca ptr, align 8
  store ptr %0, ptr %2, align 8
  %3 = load ptr, ptr %2, align 8
  call void @register_error_str(ptr noundef @last_global_error_str, ptr noundef %3)
  ret void
}

; Function Attrs: nounwind uwtable
define hidden i32 @PLATFORM_hid_exit() #0 {
  call void @register_global_error(ptr noundef null)
  ret i32 0
}

; Function Attrs: nounwind uwtable
define internal void @HIDAPI_ShutdownDiscovery() #0 {
  %1 = load i8, ptr @SDL_HIDAPI_discovery, align 8, !range !12, !noundef !13
  %2 = trunc i8 %1 to i1
  br i1 %2, label %4, label %3

3:                                                ; preds = %0
  br label %36

4:                                                ; preds = %0
  %5 = load i32, ptr @linux_enumeration_method, align 4
  %6 = icmp eq i32 %5, 1
  br i1 %6, label %7, label %28

7:                                                ; preds = %4
  %8 = load ptr, ptr @usyms, align 8
  %9 = icmp ne ptr %8, null
  br i1 %9, label %10, label %27

10:                                               ; preds = %7
  %11 = load ptr, ptr getelementptr inbounds nuw (%struct.anon, ptr @SDL_HIDAPI_discovery, i32 0, i32 5), align 8
  %12 = icmp ne ptr %11, null
  br i1 %12, label %13, label %18

13:                                               ; preds = %10
  %14 = load ptr, ptr @usyms, align 8
  %15 = getelementptr inbounds nuw %struct.SDL_UDEV_Symbols, ptr %14, i32 0, i32 22
  %16 = load ptr, ptr %15, align 8
  %17 = load ptr, ptr getelementptr inbounds nuw (%struct.anon, ptr @SDL_HIDAPI_discovery, i32 0, i32 5), align 8
  call void %16(ptr noundef %17)
  br label %18

18:                                               ; preds = %13, %10
  %19 = load ptr, ptr getelementptr inbounds nuw (%struct.anon, ptr @SDL_HIDAPI_discovery, i32 0, i32 4), align 8
  %20 = icmp ne ptr %19, null
  br i1 %20, label %21, label %26

21:                                               ; preds = %18
  %22 = load ptr, ptr @usyms, align 8
  %23 = getelementptr inbounds nuw %struct.SDL_UDEV_Symbols, ptr %22, i32 0, i32 24
  %24 = load ptr, ptr %23, align 8
  %25 = load ptr, ptr getelementptr inbounds nuw (%struct.anon, ptr @SDL_HIDAPI_discovery, i32 0, i32 4), align 8
  call void %24(ptr noundef %25)
  br label %26

26:                                               ; preds = %21, %18
  call void @SDL_UDEV_ReleaseUdevSyms()
  store ptr null, ptr @usyms, align 8
  br label %27

27:                                               ; preds = %26, %7
  br label %35

28:                                               ; preds = %4
  %29 = load i32, ptr @inotify_fd, align 4
  %30 = icmp sge i32 %29, 0
  br i1 %30, label %31, label %34

31:                                               ; preds = %28
  %32 = load i32, ptr @inotify_fd, align 4
  %33 = call i32 @close(i32 noundef %32)
  store i32 -1, ptr @inotify_fd, align 4
  br label %34

34:                                               ; preds = %31, %28
  br label %35

35:                                               ; preds = %34, %27
  store i8 0, ptr @SDL_HIDAPI_discovery, align 8
  br label %36

36:                                               ; preds = %35, %3
  ret void
}

; Function Attrs: nounwind uwtable
define hidden i32 @SDL_hid_exit_REAL() #0 {
  %1 = alloca i32, align 4
  %2 = alloca i32, align 4
  %3 = alloca i32, align 4
  call void @llvm.lifetime.start.p0(i64 4, ptr %2) #10
  store i32 0, ptr %2, align 4
  %4 = load i32, ptr @SDL_hidapi_refcount, align 4
  %5 = icmp eq i32 %4, 0
  br i1 %5, label %6, label %7

6:                                                ; preds = %0
  store i32 0, ptr %1, align 4
  store i32 1, ptr %3, align 4
  br label %27

7:                                                ; preds = %0
  %8 = load i32, ptr @SDL_hidapi_refcount, align 4
  %9 = add nsw i32 %8, -1
  store i32 %9, ptr @SDL_hidapi_refcount, align 4
  %10 = load i32, ptr @SDL_hidapi_refcount, align 4
  %11 = icmp sgt i32 %10, 0
  br i1 %11, label %12, label %13

12:                                               ; preds = %7
  store i32 0, ptr %1, align 4
  store i32 1, ptr %3, align 4
  br label %27

13:                                               ; preds = %7
  store i32 0, ptr @SDL_hidapi_refcount, align 4
  call void @HIDAPI_ShutdownDiscovery()
  %14 = load ptr, ptr @udev_ctx, align 8
  %15 = icmp ne ptr %14, null
  br i1 %15, label %16, label %20

16:                                               ; preds = %13
  %17 = call i32 @PLATFORM_hid_exit()
  %18 = load i32, ptr %2, align 4
  %19 = or i32 %18, %17
  store i32 %19, ptr %2, align 4
  br label %20

20:                                               ; preds = %16, %13
  call void @SDL_UDEV_ReleaseUdevSyms()
  call void @SDL_RemoveHintCallback_REAL(ptr noundef @.str.19, ptr noundef @OnlyControllersChanged, ptr noundef null)
  call void @SDL_RemoveHintCallback_REAL(ptr noundef @.str.20, ptr noundef @IgnoredDevicesChanged, ptr noundef null)
  %21 = load ptr, ptr @SDL_hidapi_ignored_devices, align 8
  %22 = icmp ne ptr %21, null
  br i1 %22, label %23, label %25

23:                                               ; preds = %20
  %24 = load ptr, ptr @SDL_hidapi_ignored_devices, align 8
  call void @SDL_free_REAL(ptr noundef %24)
  store ptr null, ptr @SDL_hidapi_ignored_devices, align 8
  br label %25

25:                                               ; preds = %23, %20
  %26 = load i32, ptr %2, align 4
  store i32 %26, ptr %1, align 4
  store i32 1, ptr %3, align 4
  br label %27

27:                                               ; preds = %25, %12, %6
  call void @llvm.lifetime.end.p0(i64 4, ptr %2) #10
  %28 = load i32, ptr %1, align 4
  ret i32 %28
}