; Function Attrs: nounwind uwtable
define hidden noundef i32 @SDL_hid_exit_REAL() local_unnamed_addr #1 {
  %1 = load i32, ptr @SDL_hidapi_refcount, align 4
  %2 = icmp eq i32 %1, 0
  br i1 %2, label %36, label %3

3:                                                ; preds = %0
  %4 = add nsw i32 %1, -1
  store i32 %4, ptr @SDL_hidapi_refcount, align 4
  %5 = icmp sgt i32 %1, 1
  br i1 %5, label %36, label %6

6:                                                ; preds = %3
  store i32 0, ptr @SDL_hidapi_refcount, align 4
  %.b4.i = load i1, ptr @SDL_HIDAPI_discovery.0, align 8
  br i1 %.b4.i, label %7, label %HIDAPI_ShutdownDiscovery.exit

7:                                                ; preds = %6
  %8 = load i32, ptr @linux_enumeration_method, align 4
  %9 = icmp eq i32 %8, 1
  br i1 %9, label %10, label %24

10:                                               ; preds = %7
  %11 = load ptr, ptr @usyms, align 8
  %.not.i = icmp eq ptr %11, null
  br i1 %.not.i, label %29, label %12

12:                                               ; preds = %10
  %13 = load ptr, ptr @SDL_HIDAPI_discovery.5, align 8
  %.not5.i = icmp eq ptr %13, null
  br i1 %.not5.i, label %17, label %14

14:                                               ; preds = %12
  %15 = getelementptr inbounds nuw i8, ptr %11, i64 176
  %16 = load ptr, ptr %15, align 8
  tail call void %16(ptr noundef nonnull %13) #22
  br label %17

17:                                               ; preds = %14, %12
  %18 = load ptr, ptr @SDL_HIDAPI_discovery.4, align 8
  %.not6.i = icmp eq ptr %18, null
  br i1 %.not6.i, label %23, label %19

19:                                               ; preds = %17
  %20 = load ptr, ptr @usyms, align 8
  %21 = getelementptr inbounds nuw i8, ptr %20, i64 192
  %22 = load ptr, ptr %21, align 8
  tail call void %22(ptr noundef nonnull %18) #22
  br label %23

23:                                               ; preds = %19, %17
  tail call void @SDL_UDEV_ReleaseUdevSyms() #22
  store ptr null, ptr @usyms, align 8
  br label %29

24:                                               ; preds = %7
  %25 = load i32, ptr @inotify_fd, align 4
  %26 = icmp sgt i32 %25, -1
  br i1 %26, label %27, label %29

27:                                               ; preds = %24
  %28 = tail call i32 @close(i32 noundef %25) #22
  store i32 -1, ptr @inotify_fd, align 4
  br label %29

29:                                               ; preds = %27, %24, %23, %10
  store i1 false, ptr @SDL_HIDAPI_discovery.0, align 8
  br label %HIDAPI_ShutdownDiscovery.exit

HIDAPI_ShutdownDiscovery.exit:                    ; preds = %6, %29
  %30 = load ptr, ptr @udev_ctx, align 8
  %.not = icmp eq ptr %30, null
  br i1 %.not, label %33, label %31

31:                                               ; preds = %HIDAPI_ShutdownDiscovery.exit
  %32 = tail call zeroext i1 @SDL_ClearError_REAL() #22
  br label %33

33:                                               ; preds = %31, %HIDAPI_ShutdownDiscovery.exit
  tail call void @SDL_UDEV_ReleaseUdevSyms() #22
  tail call void @SDL_RemoveHintCallback_REAL(ptr noundef nonnull @.str.19, ptr noundef nonnull @OnlyControllersChanged, ptr noundef null) #22
  tail call void @SDL_RemoveHintCallback_REAL(ptr noundef nonnull @.str.20, ptr noundef nonnull @IgnoredDevicesChanged, ptr noundef null) #22
  %34 = load ptr, ptr @SDL_hidapi_ignored_devices, align 8
  %.not6 = icmp eq ptr %34, null
  br i1 %.not6, label %36, label %35

35:                                               ; preds = %33
  tail call void @SDL_free_REAL(ptr noundef nonnull %34) #22
  store ptr null, ptr @SDL_hidapi_ignored_devices, align 8
  br label %36

36:                                               ; preds = %33, %35, %3, %0
  ret i32 0
}